target datalayout = "e-m:e-p270:32:32-p271:32:32-p272:64:64-i64:64-i128:128-f80:128-n8:16:32:64-S128"
target triple = "x86_64-pc-linux-gnu"

%struct.Fraig_HashTableStruct_t_ = type { ptr, i32, i32 }
%struct.Fraig_NodeStruct_t_ = type { i32, i32, i32, i32, i32, i32, i32, ptr, ptr, ptr, ptr, ptr, ptr, ptr, ptr, i32, i32, ptr, ptr, ptr, ptr, ptr, ptr, ptr }
%struct.timespec = type { i64, i64 }

; Function Attrs: inlinehint nounwind uwtable
define internal i32 @Abc_PrimeCudd(i32 noundef %0) #4 {
  %2 = alloca i32, align 4
  %3 = alloca i32, align 4
  %4 = alloca i32, align 4
  store i32 %0, ptr %2, align 4, !tbaa !3
  call void @llvm.lifetime.start.p0(i64 4, ptr %3) #7
  call void @llvm.lifetime.start.p0(i64 4, ptr %4) #7
  %5 = load i32, ptr %2, align 4, !tbaa !3
  %6 = add i32 %5, -1
  store i32 %6, ptr %2, align 4, !tbaa !3
  br label %7

7:                                                ; preds = %32, %1
  %8 = load i32, ptr %2, align 4, !tbaa !3
  %9 = add i32 %8, 1
  store i32 %9, ptr %2, align 4, !tbaa !3
  %10 = load i32, ptr %2, align 4, !tbaa !3
  %11 = and i32 %10, 1
  %12 = icmp ne i32 %11, 0
  br i1 %12, label %13, label %30

13:                                               ; preds = %7
  store i32 1, ptr %4, align 4, !tbaa !3
  store i32 3, ptr %3, align 4, !tbaa !3
  br label %14

14:                                               ; preds = %26, %13
  %15 = load i32, ptr %3, align 4, !tbaa !3
  %16 = load i32, ptr %3, align 4, !tbaa !3
  %17 = mul nsw i32 %15, %16
  %18 = load i32, ptr %2, align 4, !tbaa !3
  %19 = icmp ule i32 %17, %18
  br i1 %19, label %20, label %29

20:                                               ; preds = %14
  %21 = load i32, ptr %2, align 4, !tbaa !3
  %22 = load i32, ptr %3, align 4, !tbaa !3
  %23 = urem i32 %21, %22
  %24 = icmp eq i32 %23, 0
  br i1 %24, label %25, label %26

25:                                               ; preds = %20
  store i32 0, ptr %4, align 4, !tbaa !3
  br label %29

26:                                               ; preds = %20
  %27 = load i32, ptr %3, align 4, !tbaa !3
  %28 = add nsw i32 %27, 2
  store i32 %28, ptr %3, align 4, !tbaa !3
  br label %14, !llvm.loop !14

29:                                               ; preds = %25, %14
  br label %31

30:                                               ; preds = %7
  store i32 0, ptr %4, align 4, !tbaa !3
  br label %31

31:                                               ; preds = %30, %29
  br label %32

32:                                               ; preds = %31
  %33 = load i32, ptr %4, align 4, !tbaa !3
  %34 = icmp ne i32 %33, 0
  %35 = xor i1 %34, true
  br i1 %35, label %7, label %36, !llvm.loop !16

36:                                               ; preds = %32
  %37 = load i32, ptr %2, align 4, !tbaa !3
  call void @llvm.lifetime.end.p0(i64 4, ptr %4) #7
  call void @llvm.lifetime.end.p0(i64 4, ptr %3) #7
  ret i32 %37
}

; Function Attrs: inlinehint nounwind uwtable
define internal i64 @Abc_Clock() #4 {
  %1 = alloca i64, align 8
  %2 = alloca %struct.timespec, align 8
  %3 = alloca i32, align 4
  %4 = alloca i64, align 8
  call void @llvm.lifetime.start.p0(i64 16, ptr %2) #7
  %5 = call i32 @clock_gettime(i32 noundef 1, ptr noundef %2) #7
  %6 = icmp slt i32 %5, 0
  br i1 %6, label %7, label %8

7:                                                ; preds = %0
  store i64 -1, ptr %1, align 8
  store i32 1, ptr %3, align 4
  br label %19

8:                                                ; preds = %0
  call void @llvm.lifetime.start.p0(i64 8, ptr %4) #7
  %9 = getelementptr inbounds nuw %struct.timespec, ptr %2, i32 0, i32 0
  %10 = load i64, ptr %9, align 8, !tbaa !81
  %11 = mul nsw i64 %10, 1000000
  store i64 %11, ptr %4, align 8, !tbaa !40
  %12 = getelementptr inbounds nuw %struct.timespec, ptr %2, i32 0, i32 1
  %13 = load i64, ptr %12, align 8, !tbaa !83
  %14 = mul nsw i64 %13, 1000000
  %15 = sdiv i64 %14, 1000000000
  %16 = load i64, ptr %4, align 8, !tbaa !40
  %17 = add nsw i64 %16, %15
  store i64 %17, ptr %4, align 8, !tbaa !40
  %18 = load i64, ptr %4, align 8, !tbaa !40
  store i64 %18, ptr %1, align 8
  store i32 1, ptr %3, align 4
  call void @llvm.lifetime.end.p0(i64 8, ptr %4) #7
  br label %19

19:                                               ; preds = %8, %7
  call void @llvm.lifetime.end.p0(i64 16, ptr %2) #7
  %20 = load i64, ptr %1, align 8
  ret i64 %20
}

; Function Attrs: nounwind uwtable
define internal void @Fraig_TableResizeF(ptr noundef %0, i32 noundef %1) #0 {
  %3 = alloca ptr, align 8
  %4 = alloca i32, align 4
  %5 = alloca ptr, align 8
  %6 = alloca ptr, align 8
  %7 = alloca ptr, align 8
  %8 = alloca i32, align 4
  %9 = alloca i32, align 4
  %10 = alloca i32, align 4
  %11 = alloca i64, align 8
  %12 = alloca i32, align 4
  store ptr %0, ptr %3, align 8, !tbaa !7
  store i32 %1, ptr %4, align 4, !tbaa !3
  call void @llvm.lifetime.start.p0(i64 8, ptr %5) #7
  call void @llvm.lifetime.start.p0(i64 8, ptr %6) #7
  call void @llvm.lifetime.start.p0(i64 8, ptr %7) #7
  call void @llvm.lifetime.start.p0(i64 4, ptr %8) #7
  call void @llvm.lifetime.start.p0(i64 4, ptr %9) #7
  call void @llvm.lifetime.start.p0(i64 4, ptr %10) #7
  call void @llvm.lifetime.start.p0(i64 8, ptr %11) #7
  call void @llvm.lifetime.start.p0(i64 4, ptr %12) #7
  %13 = call i64 @Abc_Clock()
  store i64 %13, ptr %11, align 8, !tbaa !40
  %14 = load ptr, ptr %3, align 8, !tbaa !7
  %15 = getelementptr inbounds nuw %struct.Fraig_HashTableStruct_t_, ptr %14, i32 0, i32 1
  %16 = load i32, ptr %15, align 8, !tbaa !10
  %17 = mul nsw i32 2, %16
  %18 = call i32 @Abc_PrimeCudd(i32 noundef %17)
  store i32 %18, ptr %8, align 4, !tbaa !3
  %19 = load i32, ptr %8, align 4, !tbaa !3
  %20 = sext i32 %19 to i64
  %21 = mul i64 8, %20
  %22 = call noalias ptr @malloc(i64 noundef %21) #8
  store ptr %22, ptr %5, align 8, !tbaa !21
  %23 = load ptr, ptr %5, align 8, !tbaa !21
  %24 = load i32, ptr %8, align 4, !tbaa !3
  %25 = sext i32 %24 to i64
  %26 = mul i64 8, %25
  call void @llvm.memset.p0.i64(ptr align 8 %23, i8 0, i64 %26, i1 false)
  store i32 0, ptr %9, align 4, !tbaa !3
  store i32 0, ptr %10, align 4, !tbaa !3
  br label %27

27:                                               ; preds = %95, %2
  %28 = load i32, ptr %10, align 4, !tbaa !3
  %29 = load ptr, ptr %3, align 8, !tbaa !7
  %30 = getelementptr inbounds nuw %struct.Fraig_HashTableStruct_t_, ptr %29, i32 0, i32 1
  %31 = load i32, ptr %30, align 8, !tbaa !10
  %32 = icmp slt i32 %28, %31
  br i1 %32, label %33, label %98

33:                                               ; preds = %27
  %34 = load ptr, ptr %3, align 8, !tbaa !7
  %35 = getelementptr inbounds nuw %struct.Fraig_HashTableStruct_t_, ptr %34, i32 0, i32 0
  %36 = load ptr, ptr %35, align 8, !tbaa !13
  %37 = load i32, ptr %10, align 4, !tbaa !3
  %38 = sext i32 %37 to i64
  %39 = getelementptr inbounds ptr, ptr %36, i64 %38
  %40 = load ptr, ptr %39, align 8, !tbaa !19
  store ptr %40, ptr %6, align 8, !tbaa !19
  %41 = load ptr, ptr %6, align 8, !tbaa !19
  %42 = icmp ne ptr %41, null
  br i1 %42, label %43, label %47

43:                                               ; preds = %33
  %44 = load ptr, ptr %6, align 8, !tbaa !19
  %45 = getelementptr inbounds nuw %struct.Fraig_NodeStruct_t_, ptr %44, i32 0, i32 11
  %46 = load ptr, ptr %45, align 8, !tbaa !49
  br label %48

47:                                               ; preds = %33
  br label %48

48:                                               ; preds = %47, %43
  %49 = phi ptr [ %46, %43 ], [ null, %47 ]
  store ptr %49, ptr %7, align 8, !tbaa !19
  br label %50

50:                                               ; preds = %92, %48
  %51 = load ptr, ptr %6, align 8, !tbaa !19
  %52 = icmp ne ptr %51, null
  br i1 %52, label %53, label %94

53:                                               ; preds = %50
  %54 = load i32, ptr %4, align 4, !tbaa !3
  %55 = icmp ne i32 %54, 0
  br i1 %55, label %56, label %62

56:                                               ; preds = %53
  %57 = load ptr, ptr %6, align 8, !tbaa !19
  %58 = getelementptr inbounds nuw %struct.Fraig_NodeStruct_t_, ptr %57, i32 0, i32 15
  %59 = load i32, ptr %58, align 8, !tbaa !44
  %60 = load i32, ptr %8, align 4, !tbaa !3
  %61 = urem i32 %59, %60
  store i32 %61, ptr %12, align 4, !tbaa !3
  br label %68

62:                                               ; preds = %53
  %63 = load ptr, ptr %6, align 8, !tbaa !19
  %64 = getelementptr inbounds nuw %struct.Fraig_NodeStruct_t_, ptr %63, i32 0, i32 16
  %65 = load i32, ptr %64, align 4, !tbaa !53
  %66 = load i32, ptr %8, align 4, !tbaa !3
  %67 = urem i32 %65, %66
  store i32 %67, ptr %12, align 4, !tbaa !3
  br label %68

68:                                               ; preds = %62, %56
  %69 = load ptr, ptr %5, align 8, !tbaa !21
  %70 = load i32, ptr %12, align 4, !tbaa !3
  %71 = zext i32 %70 to i64
  %72 = getelementptr inbounds nuw ptr, ptr %69, i64 %71
  %73 = load ptr, ptr %72, align 8, !tbaa !19
  %74 = load ptr, ptr %6, align 8, !tbaa !19
  %75 = getelementptr inbounds nuw %struct.Fraig_NodeStruct_t_, ptr %74, i32 0, i32 11
  store ptr %73, ptr %75, align 8, !tbaa !49
  %76 = load ptr, ptr %6, align 8, !tbaa !19
  %77 = load ptr, ptr %5, align 8, !tbaa !21
  %78 = load i32, ptr %12, align 4, !tbaa !3
  %79 = zext i32 %78 to i64
  %80 = getelementptr inbounds nuw ptr, ptr %77, i64 %79
  store ptr %76, ptr %80, align 8, !tbaa !19
  %81 = load i32, ptr %9, align 4, !tbaa !3
  %82 = add nsw i32 %81, 1
  store i32 %82, ptr %9, align 4, !tbaa !3
  br label %83

83:                                               ; preds = %68
  %84 = load ptr, ptr %7, align 8, !tbaa !19
  store ptr %84, ptr %6, align 8, !tbaa !19
  %85 = load ptr, ptr %6, align 8, !tbaa !19
  %86 = icmp ne ptr %85, null
  br i1 %86, label %87, label %91

87:                                               ; preds = %83
  %88 = load ptr, ptr %6, align 8, !tbaa !19
  %89 = getelementptr inbounds nuw %struct.Fraig_NodeStruct_t_, ptr %88, i32 0, i32 11
  %90 = load ptr, ptr %89, align 8, !tbaa !49
  br label %92

91:                                               ; preds = %83
  br label %92

92:                                               ; preds = %91, %87
  %93 = phi ptr [ %90, %87 ], [ null, %91 ]
  store ptr %93, ptr %7, align 8, !tbaa !19
  br label %50, !llvm.loop !56

94:                                               ; preds = %50
  br label %95

95:                                               ; preds = %94
  %96 = load i32, ptr %10, align 4, !tbaa !3
  %97 = add nsw i32 %96, 1
  store i32 %97, ptr %10, align 4, !tbaa !3
  br label %27, !llvm.loop !57

98:                                               ; preds = %27
  %99 = load ptr, ptr %3, align 8, !tbaa !7
  %100 = getelementptr inbounds nuw %struct.Fraig_HashTableStruct_t_, ptr %99, i32 0, i32 0
  %101 = load ptr, ptr %100, align 8, !tbaa !13
  %102 = icmp ne ptr %101, null
  br i1 %102, label %103, label %109

103:                                              ; preds = %98
  %104 = load ptr, ptr %3, align 8, !tbaa !7
  %105 = getelementptr inbounds nuw %struct.Fraig_HashTableStruct_t_, ptr %104, i32 0, i32 0
  %106 = load ptr, ptr %105, align 8, !tbaa !13
  call void @free(ptr noundef %106) #7
  %107 = load ptr, ptr %3, align 8, !tbaa !7
  %108 = getelementptr inbounds nuw %struct.Fraig_HashTableStruct_t_, ptr %107, i32 0, i32 0
  store ptr null, ptr %108, align 8, !tbaa !13
  br label %110

109:                                              ; preds = %98
  br label %110

110:                                              ; preds = %109, %103
  %111 = load ptr, ptr %5, align 8, !tbaa !21
  %112 = load ptr, ptr %3, align 8, !tbaa !7
  %113 = getelementptr inbounds nuw %struct.Fraig_HashTableStruct_t_, ptr %112, i32 0, i32 0
  store ptr %111, ptr %113, align 8, !tbaa !13
  %114 = load i32, ptr %8, align 4, !tbaa !3
  %115 = load ptr, ptr %3, align 8, !tbaa !7
  %116 = getelementptr inbounds nuw %struct.Fraig_HashTableStruct_t_, ptr %115, i32 0, i32 1
  store i32 %114, ptr %116, align 8, !tbaa !10
  call void @llvm.lifetime.end.p0(i64 4, ptr %12) #7
  call void @llvm.lifetime.end.p0(i64 8, ptr %11) #7
  call void @llvm.lifetime.end.p0(i64 4, ptr %10) #7
  call void @llvm.lifetime.end.p0(i64 4, ptr %9) #7
  call void @llvm.lifetime.end.p0(i64 4, ptr %8) #7
  call void @llvm.lifetime.end.p0(i64 8, ptr %7) #7
  call void @llvm.lifetime.end.p0(i64 8, ptr %6) #7
  call void @llvm.lifetime.end.p0(i64 8, ptr %5) #7
  ret void
}