; Function Attrs: nounwind uwtable
define internal fastcc void @Fraig_TableResizeF(ptr noundef captures(none) %0, i32 noundef range(i32 0, 2) %1) unnamed_addr #4 {
Abc_Clock.exit:
  %2 = alloca %struct.timespec, align 8
  call void @llvm.lifetime.start.p0(i64 16, ptr nonnull %2) #14
  %3 = call i32 @clock_gettime(i32 noundef 1, ptr noundef nonnull %2) #14
  call void @llvm.lifetime.end.p0(i64 16, ptr nonnull %2) #14
  %4 = getelementptr inbounds nuw i8, ptr %0, i64 8
  %5 = load i32, ptr %4, align 8, !tbaa !6
  %6 = shl nsw i32 %5, 1
  %7 = add i32 %6, -1
  br label %.loopexit.i

.loopexit.i:                                      ; preds = %.loopexit.i.backedge, %Abc_Clock.exit
  %.012.i = phi i32 [ %7, %Abc_Clock.exit ], [ %8, %.loopexit.i.backedge ]
  %8 = add i32 %.012.i, 1
  %9 = and i32 %.012.i, 1
  %.not.not.i = icmp eq i32 %9, 0
  br i1 %.not.not.i, label %.preheader.i, label %.loopexit.i.backedge

.loopexit.i.backedge:                             ; preds = %.lr.ph.i, %.loopexit.i
  br label %.loopexit.i, !llvm.loop !3

.preheader.i:                                     ; preds = %.loopexit.i
  %.not15.i = icmp ult i32 %8, 9
  br i1 %.not15.i, label %Abc_PrimeCudd.exit, label %.lr.ph.i

10:                                               ; preds = %.lr.ph.i
  %11 = add nuw nsw i32 %.01116.i, 2
  %12 = mul nuw nsw i32 %11, %11
  %.not.i = icmp ugt i32 %12, %8
  br i1 %.not.i, label %Abc_PrimeCudd.exit, label %.lr.ph.i, !llvm.loop !5

.lr.ph.i:                                         ; preds = %.preheader.i, %10
  %.01116.i = phi i32 [ %11, %10 ], [ 3, %.preheader.i ]
  %13 = urem i32 %8, %.01116.i
  %14 = icmp eq i32 %13, 0
  br i1 %14, label %.loopexit.i.backedge, label %10, !llvm.loop !3

Abc_PrimeCudd.exit:                               ; preds = %.preheader.i, %10
  %15 = sext i32 %8 to i64
  %16 = shl nsw i64 %15, 3
  %calloc = call ptr @calloc(i64 1, i64 %16)
  %17 = icmp sgt i32 %5, 0
  %.pre = load ptr, ptr %0, align 8, !tbaa !13
  br i1 %17, label %.lr.ph51, label %._crit_edge52

.lr.ph51:                                         ; preds = %Abc_PrimeCudd.exit
  %.not41 = icmp eq i32 %1, 0
  %.pn.in.v = select i1 %.not41, i64 100, i64 96
  %wide.trip.count = zext nneg i32 %5 to i64
  br label %18

18:                                               ; preds = %.lr.ph51, %._crit_edge
  %indvars.iv = phi i64 [ 0, %.lr.ph51 ], [ %indvars.iv.next, %._crit_edge ]
  %19 = getelementptr inbounds nuw ptr, ptr %.pre, i64 %indvars.iv
  %20 = load ptr, ptr %19, align 8, !tbaa !29
  %.not39 = icmp eq ptr %20, null
  br i1 %.not39, label %._crit_edge, label %.lr.ph

.lr.ph:                                           ; preds = %18, %.lr.ph
  %.sink60 = phi ptr [ %22, %.lr.ph ], [ %20, %18 ]
  %21 = getelementptr inbounds nuw i8, ptr %.sink60, i64 64
  %22 = load ptr, ptr %21, align 8, !tbaa !50
  %.pn.in = getelementptr inbounds nuw i8, ptr %.sink60, i64 %.pn.in.v
  %.pn = load i32, ptr %.pn.in, align 4, !tbaa !41
  %.0 = urem i32 %.pn, %8
  %23 = zext i32 %.0 to i64
  %24 = getelementptr inbounds nuw ptr, ptr %calloc, i64 %23
  %25 = load ptr, ptr %24, align 8, !tbaa !29
  %26 = getelementptr inbounds nuw i8, ptr %.sink60, i64 64
  store ptr %25, ptr %26, align 8, !tbaa !50
  store ptr %.sink60, ptr %24, align 8, !tbaa !29
  %.not42 = icmp eq ptr %22, null
  br i1 %.not42, label %._crit_edge, label %.lr.ph, !llvm.loop !51

._crit_edge:                                      ; preds = %.lr.ph, %18
  %indvars.iv.next = add nuw nsw i64 %indvars.iv, 1
  %exitcond.not = icmp eq i64 %indvars.iv.next, %wide.trip.count
  br i1 %exitcond.not, label %._crit_edge52, label %18, !llvm.loop !52

._crit_edge52:                                    ; preds = %._crit_edge, %Abc_PrimeCudd.exit
  %.not = icmp eq ptr %.pre, null
  br i1 %.not, label %28, label %27

27:                                               ; preds = %._crit_edge52
  call void @free(ptr noundef nonnull %.pre) #14
  br label %28

28:                                               ; preds = %._crit_edge52, %27
  store ptr %calloc, ptr %0, align 8, !tbaa !13
  store i32 %8, ptr %4, align 8, !tbaa !6
  ret void
}